; ModuleID = '23/71.c'
source_filename = "23/71.c"
target datalayout = "e-m:e-p270:32:32-p271:32:32-p272:64:64-i64:64-f80:128-n8:16:32:64-S128"
target triple = "x86_64-pc-linux-gnu"

@.str = private unnamed_addr constant [3 x i8] c"%c\00", align 1
@.str.1 = private unnamed_addr constant [2 x i8] c" \00", align 1

; Function Attrs: noinline nounwind uwtable
define dso_local void @main() #0 {
  %1 = alloca [101 x i8], align 16
  %2 = alloca [102 x i32], align 16
  %3 = alloca i32, align 4
  %4 = alloca i32, align 4
  %5 = alloca i32, align 4
  %6 = alloca i32, align 4
  %7 = alloca i32, align 4
  %8 = alloca i32, align 4
  %9 = alloca i32, align 4
  store i32 0, i32* %6, align 4
  store i32 0, i32* %9, align 4
  %10 = getelementptr inbounds [101 x i8], [101 x i8]* %1, i64 0, i64 0
  %11 = call i32 (i8*, ...) bitcast (i32 (...)* @gets to i32 (i8*, ...)*)(i8* %10)
  store i32 0, i32* %5, align 4
  br label %12

12:                                               ; preds = %47, %0
  %13 = load i32, i32* %5, align 4
  %14 = sext i32 %13 to i64
  %15 = getelementptr inbounds [101 x i8], [101 x i8]* %1, i64 0, i64 %14
  %16 = load i8, i8* %15, align 1
  %17 = sext i8 %16 to i32
  %18 = icmp ne i32 %17, 0
  br i1 %18, label %19, label %50

19:                                               ; preds = %12
  %20 = load i32, i32* %5, align 4
  %21 = sext i32 %20 to i64
  %22 = getelementptr inbounds [101 x i8], [101 x i8]* %1, i64 0, i64 %21
  %23 = load i8, i8* %22, align 1
  %24 = sext i8 %23 to i32
  %25 = icmp eq i32 %24, 32
  br i1 %25, label %26, label %35

26:                                               ; preds = %19
  %27 = load i32, i32* %5, align 4
  %28 = load i32, i32* %6, align 4
  %29 = sext i32 %28 to i64
  %30 = getelementptr inbounds [102 x i32], [102 x i32]* %2, i64 0, i64 %29
  store i32 %27, i32* %30, align 4
  %31 = load i32, i32* %6, align 4
  %32 = add nsw i32 %31, 1
  store i32 %32, i32* %6, align 4
  %33 = load i32, i32* %9, align 4
  %34 = add nsw i32 %33, 1
  store i32 %34, i32* %9, align 4
  br label %46

35:                                               ; preds = %19
  %36 = load i32, i32* %5, align 4
  %37 = add nsw i32 %36, 1
  %38 = sext i32 %37 to i64
  %39 = getelementptr inbounds [101 x i8], [101 x i8]* %1, i64 0, i64 %38
  %40 = load i8, i8* %39, align 1
  %41 = sext i8 %40 to i32
  %42 = icmp eq i32 %41, 0
  br i1 %42, label %43, label %45

43:                                               ; preds = %35
  %44 = load i32, i32* %5, align 4
  store i32 %44, i32* %3, align 4
  br label %45

45:                                               ; preds = %43, %35
  br label %46

46:                                               ; preds = %45, %26
  br label %47

47:                                               ; preds = %46
  %48 = load i32, i32* %5, align 4
  %49 = add nsw i32 %48, 1
  store i32 %49, i32* %5, align 4
  br label %12

50:                                               ; preds = %12
  %51 = load i32, i32* %6, align 4
  %52 = icmp eq i32 %51, 0
  br i1 %52, label %53, label %81

53:                                               ; preds = %50
  store i32 0, i32* %8, align 4
  br label %54

54:                                               ; preds = %77, %53
  %55 = load i32, i32* %8, align 4
  %56 = sext i32 %55 to i64
  %57 = getelementptr inbounds [101 x i8], [101 x i8]* %1, i64 0, i64 %56
  %58 = load i8, i8* %57, align 1
  %59 = sext i8 %58 to i32
  %60 = icmp ne i32 %59, 32
  br i1 %60, label %61, label %68

61:                                               ; preds = %54
  %62 = load i32, i32* %8, align 4
  %63 = sext i32 %62 to i64
  %64 = getelementptr inbounds [101 x i8], [101 x i8]* %1, i64 0, i64 %63
  %65 = load i8, i8* %64, align 1
  %66 = sext i8 %65 to i32
  %67 = icmp ne i32 %66, 0
  br label %68

68:                                               ; preds = %61, %54
  %69 = phi i1 [ false, %54 ], [ %67, %61 ]
  br i1 %69, label %70, label %80

70:                                               ; preds = %68
  %71 = load i32, i32* %8, align 4
  %72 = sext i32 %71 to i64
  %73 = getelementptr inbounds [101 x i8], [101 x i8]* %1, i64 0, i64 %72
  %74 = load i8, i8* %73, align 1
  %75 = sext i8 %74 to i32
  %76 = call i32 (i8*, ...) @printf(i8* getelementptr inbounds ([3 x i8], [3 x i8]* @.str, i64 0, i64 0), i32 %75)
  br label %77

77:                                               ; preds = %70
  %78 = load i32, i32* %8, align 4
  %79 = add nsw i32 %78, 1
  store i32 %79, i32* %8, align 4
  br label %54

80:                                               ; preds = %68
  br label %168

81:                                               ; preds = %50
  br label %82

82:                                               ; preds = %137, %81
  %83 = load i32, i32* %6, align 4
  %84 = icmp sgt i32 %83, 0
  br i1 %84, label %85, label %140

85:                                               ; preds = %82
  %86 = load i32, i32* %6, align 4
  %87 = sub nsw i32 %86, 1
  %88 = sext i32 %87 to i64
  %89 = getelementptr inbounds [102 x i32], [102 x i32]* %2, i64 0, i64 %88
  %90 = load i32, i32* %89, align 4
  %91 = add nsw i32 %90, 1
  store i32 %91, i32* %8, align 4
  br label %92

92:                                               ; preds = %133, %85
  %93 = load i32, i32* %8, align 4
  %94 = sext i32 %93 to i64
  %95 = getelementptr inbounds [101 x i8], [101 x i8]* %1, i64 0, i64 %94
  %96 = load i8, i8* %95, align 1
  %97 = sext i8 %96 to i32
  %98 = icmp ne i32 %97, 32
  br i1 %98, label %99, label %106

99:                                               ; preds = %92
  %100 = load i32, i32* %8, align 4
  %101 = sext i32 %100 to i64
  %102 = getelementptr inbounds [101 x i8], [101 x i8]* %1, i64 0, i64 %101
  %103 = load i8, i8* %102, align 1
  %104 = sext i8 %103 to i32
  %105 = icmp ne i32 %104, 0
  br label %106

106:                                              ; preds = %99, %92
  %107 = phi i1 [ false, %92 ], [ %105, %99 ]
  br i1 %107, label %108, label %136

108:                                              ; preds = %106
  %109 = load i32, i32* %8, align 4
  %110 = sext i32 %109 to i64
  %111 = getelementptr inbounds [101 x i8], [101 x i8]* %1, i64 0, i64 %110
  %112 = load i8, i8* %111, align 1
  %113 = sext i8 %112 to i32
  %114 = call i32 (i8*, ...) @printf(i8* getelementptr inbounds ([3 x i8], [3 x i8]* @.str, i64 0, i64 0), i32 %113)
  %115 = load i32, i32* %8, align 4
  %116 = add nsw i32 %115, 1
  %117 = sext i32 %116 to i64
  %118 = getelementptr inbounds [101 x i8], [101 x i8]* %1, i64 0, i64 %117
  %119 = load i8, i8* %118, align 1
  %120 = sext i8 %119 to i32
  %121 = icmp eq i32 %120, 32
  br i1 %121, label %130, label %122

122:                                              ; preds = %108
  %123 = load i32, i32* %8, align 4
  %124 = add nsw i32 %123, 1
  %125 = sext i32 %124 to i64
  %126 = getelementptr inbounds [101 x i8], [101 x i8]* %1, i64 0, i64 %125
  %127 = load i8, i8* %126, align 1
  %128 = sext i8 %127 to i32
  %129 = icmp eq i32 %128, 0
  br i1 %129, label %130, label %132

130:                                              ; preds = %122, %108
  %131 = call i32 (i8*, ...) @printf(i8* getelementptr inbounds ([2 x i8], [2 x i8]* @.str.1, i64 0, i64 0))
  br label %132

132:                                              ; preds = %130, %122
  br label %133

133:                                              ; preds = %132
  %134 = load i32, i32* %8, align 4
  %135 = add nsw i32 %134, 1
  store i32 %135, i32* %8, align 4
  br label %92

136:                                              ; preds = %106
  br label %137

137:                                              ; preds = %136
  %138 = load i32, i32* %6, align 4
  %139 = add nsw i32 %138, -1
  store i32 %139, i32* %6, align 4
  br label %82

140:                                              ; preds = %82
  store i32 0, i32* %8, align 4
  br label %141

141:                                              ; preds = %164, %140
  %142 = load i32, i32* %8, align 4
  %143 = sext i32 %142 to i64
  %144 = getelementptr inbounds [101 x i8], [101 x i8]* %1, i64 0, i64 %143
  %145 = load i8, i8* %144, align 1
  %146 = sext i8 %145 to i32
  %147 = icmp ne i32 %146, 32
  br i1 %147, label %148, label %155

148:                                              ; preds = %141
  %149 = load i32, i32* %8, align 4
  %150 = sext i32 %149 to i64
  %151 = getelementptr inbounds [101 x i8], [101 x i8]* %1, i64 0, i64 %150
  %152 = load i8, i8* %151, align 1
  %153 = sext i8 %152 to i32
  %154 = icmp ne i32 %153, 0
  br label %155

155:                                              ; preds = %148, %141
  %156 = phi i1 [ false, %141 ], [ %154, %148 ]
  br i1 %156, label %157, label %167

157:                                              ; preds = %155
  %158 = load i32, i32* %8, align 4
  %159 = sext i32 %158 to i64
  %160 = getelementptr inbounds [101 x i8], [101 x i8]* %1, i64 0, i64 %159
  %161 = load i8, i8* %160, align 1
  %162 = sext i8 %161 to i32
  %163 = call i32 (i8*, ...) @printf(i8* getelementptr inbounds ([3 x i8], [3 x i8]* @.str, i64 0, i64 0), i32 %162)
  br label %164

164:                                              ; preds = %157
  %165 = load i32, i32* %8, align 4
  %166 = add nsw i32 %165, 1
  store i32 %166, i32* %8, align 4
  br label %141

167:                                              ; preds = %155
  br label %168

168:                                              ; preds = %167, %80
  ret void
}

declare dso_local i32 @gets(...) #1

declare dso_local i32 @printf(i8*, ...) #1


!llvm.module.flags = !{!0}
!llvm.ident = !{!1}

!0 = !{i32 1, !"wchar_size", i32 4}
!1 = !{!"clang version 10.0.0-4ubuntu1 "}
